; Function Attrs: mustprogress uwtable
define void @_ZN10MainWindow16showFilterScriptEv(ptr noundef nonnull align 8 dereferenceable(1376) %0) local_unnamed_addr #9 align 2 personality ptr @__gxx_personality_v0 {
  %2 = alloca %class.FilterScriptDialog, align 8
  %3 = getelementptr inbounds i8, ptr %0, i64 1368
  %4 = load ptr, ptr %3, align 8
  %.not.i = icmp eq ptr %4, null
  %5 = getelementptr inbounds i8, ptr %4, i64 48
  %spec.select.i = select i1 %.not.i, ptr null, ptr %5
  %6 = getelementptr inbounds i8, ptr %spec.select.i, i64 56
  call void @_ZN18FilterScriptDialogC1ER12FilterScriptP7QWidget(ptr noundef nonnull align 8 dereferenceable(64) %2, ptr noundef nonnull align 8 dereferenceable(24) %6, ptr noundef nonnull %0)
  %7 = invoke noundef i32 @_ZN7QDialog4execEv(ptr noundef nonnull align 8 dereferenceable(48) %2)
          to label %8 unwind label %11

8:                                                ; preds = %1
  %9 = icmp eq i32 %7, 1
  br i1 %9, label %10, label %13

10:                                               ; preds = %8
  invoke void @_ZN10MainWindow15runFilterScriptEv(ptr noundef nonnull align 8 dereferenceable(1376) %0)
          to label %13 unwind label %11

11:                                               ; preds = %10, %1
  %12 = landingpad { ptr, i32 }
          cleanup
  call void @_ZN18FilterScriptDialogD1Ev(ptr noundef nonnull align 8 dereferenceable(64) %2) #26
  resume { ptr, i32 } %12

13:                                               ; preds = %8, %10
  call void @_ZN18FilterScriptDialogD1Ev(ptr noundef nonnull align 8 dereferenceable(64) %2) #26
  ret void
}